; Function Attrs: mustprogress uwtable
define hidden void @_ZN19OpenColorIO_v2_5dev19MatrixTransformImpl9setOffsetEPKd(ptr noundef nonnull align 8 dereferenceable(272) %0, ptr noundef %1) unnamed_addr #3 align 2 {
  %.not = icmp eq ptr %1, null
  br i1 %.not, label %5, label %3

3:                                                ; preds = %2
  %4 = getelementptr inbounds nuw i8, ptr %0, i64 224
  tail call void @_ZN19OpenColorIO_v2_5dev12MatrixOpData7Offsets7setRGBAIdEEvPKT_(ptr noundef nonnull align 8 dereferenceable(32) %4, ptr noundef nonnull %1)
  br label %5

5:                                                ; preds = %3, %2
  ret void
}